	.file	"task1new.c"
	.text
	.globl	_sum_opt
	.def	_sum_opt;	.scl	2;	.type	32;	.endef
_sum_opt:
LFB0:
	.cfi_startproc
	pushl	%ebp
	.cfi_def_cfa_offset 8
	.cfi_offset 5, -8
	movl	%esp, %ebp
	.cfi_def_cfa_register 5
	subl	$32, %esp
	movl	12(%ebp), %eax
	imull	20(%ebp), %eax
	movl	%eax, %edx
	movl	16(%ebp), %eax
	addl	%edx, %eax
	movl	%eax, -4(%ebp)
	movl	-4(%ebp), %eax
	subl	20(%ebp), %eax
	leal	0(,%eax,4), %edx
	movl	8(%ebp), %eax
	addl	%edx, %eax
	movl	(%eax), %eax
	movl	%eax, -8(%ebp)
	movl	-4(%ebp), %edx
	movl	20(%ebp), %eax
	addl	%edx, %eax
	leal	0(,%eax,4), %edx
	movl	8(%ebp), %eax
	addl	%edx, %eax
	movl	(%eax), %eax
	movl	%eax, -12(%ebp)
	movl	-4(%ebp), %eax
	addl	$1073741823, %eax
	leal	0(,%eax,4), %edx
	movl	8(%ebp), %eax
	addl	%edx, %eax
	movl	(%eax), %eax
	movl	%eax, -16(%ebp)
	movl	-4(%ebp), %eax
	addl	$1, %eax
	leal	0(,%eax,4), %edx
	movl	8(%ebp), %eax
	addl	%edx, %eax
	movl	(%eax), %eax
	movl	%eax, -20(%ebp)
	movl	-8(%ebp), %edx
	movl	-12(%ebp), %eax
	addl	%eax, %edx
	movl	-16(%ebp), %eax
	addl	%eax, %edx
	movl	-20(%ebp), %eax
	addl	%edx, %eax
	movl	%eax, -24(%ebp)
	movl	-24(%ebp), %eax
	leave
	.cfi_restore 5
	.cfi_def_cfa 4, 4
	ret
	.cfi_endproc
LFE0:
	.ident	"GCC: (MinGW.org GCC-6.3.0-1) 6.3.0"
